target datalayout = "e-m:e-p270:32:32-p271:32:32-p272:64:64-i64:64-i128:128-f80:128-n8:16:32:64-S128"
target triple = "x86_64-pc-linux-gnu"

%"class.llvm::CodeViewDebug" = type { %"class.llvm::DebugHandlerBase", ptr, %"class.llvm::BumpPtrAllocatorImpl", %"class.llvm::codeview::GlobalTypeTableBuilder", i8, i16, ptr, i8, [7 x i8], %"class.llvm::DenseMap.67", %"class.llvm::DenseMap.70", %"class.llvm::DenseMap.73", %"class.llvm::SmallVector.76", %"class.llvm::SmallVector.76", %"class.llvm::SmallVector.81", %"class.llvm::DenseSet", i32, %"class.llvm::MapVector.89", %"class.llvm::DenseMap.98", %"class.llvm::SmallSetVector", %"class.llvm::DenseMap.111", %"class.llvm::DenseMap.114", %"class.llvm::SmallVector.117", i32, %"class.llvm::codeview::TypeIndex", ptr, %"class.std::vector.122", %"class.std::vector.122", %"class.std::map" }
%"class.llvm::DebugHandlerBase" = type { ptr, ptr, ptr, %"class.llvm::DebugLoc", ptr, ptr, %"class.llvm::DebugLoc", ptr, ptr, %"class.llvm::LexicalScopes", %"class.llvm::DbgValueHistoryMap", %"class.llvm::DbgLabelInstrMap", %"class.llvm::DenseMap.34", %"class.llvm::DenseMap.34", %"class.llvm::InstructionOrdering" }
%"class.llvm::DebugLoc" = type { %"class.llvm::TypedTrackingMDRef" }
%"class.llvm::TypedTrackingMDRef" = type { %"class.llvm::TrackingMDRef" }
%"class.llvm::TrackingMDRef" = type { ptr }
%"class.llvm::LexicalScopes" = type { ptr, %"class.std::unordered_map", %"class.std::unordered_map.2", %"class.std::unordered_map", %"class.llvm::SmallVector", ptr, %"class.llvm::DenseMap" }
%"class.std::unordered_map.2" = type { %"class.std::_Hashtable.3" }
%"class.std::_Hashtable.3" = type { ptr, i64, %"struct.std::__detail::_Hash_node_base", i64, %"struct.std::__detail::_Prime_rehash_policy", ptr }
%"struct.std::__detail::_Hash_node_base" = type { ptr }
%"struct.std::__detail::_Prime_rehash_policy" = type { float, i64 }
%"class.std::unordered_map" = type { %"class.std::_Hashtable" }
%"class.std::_Hashtable" = type { ptr, i64, %"struct.std::__detail::_Hash_node_base", i64, %"struct.std::__detail::_Prime_rehash_policy", ptr }
%"class.llvm::SmallVector" = type { %"class.llvm::SmallVectorImpl", %"struct.llvm::SmallVectorStorage" }
%"class.llvm::SmallVectorImpl" = type { %"class.llvm::SmallVectorTemplateBase" }
%"class.llvm::SmallVectorTemplateBase" = type { %"class.llvm::SmallVectorTemplateCommon" }
%"class.llvm::SmallVectorTemplateCommon" = type { %"class.llvm::SmallVectorBase" }
%"class.llvm::SmallVectorBase" = type { ptr, i32, i32 }
%"struct.llvm::SmallVectorStorage" = type { [32 x i8] }
%"class.llvm::DenseMap" = type <{ ptr, i32, i32, i32, [4 x i8] }>
%"class.llvm::DbgValueHistoryMap" = type { %"class.llvm::MapVector" }
%"class.llvm::MapVector" = type { %"class.llvm::DenseMap.20", %"class.llvm::SmallVector.23" }
%"class.llvm::DenseMap.20" = type <{ ptr, i32, i32, i32, [4 x i8] }>
%"class.llvm::SmallVector.23" = type { %"class.llvm::SmallVectorImpl.24" }
%"class.llvm::SmallVectorImpl.24" = type { %"class.llvm::SmallVectorTemplateBase.25" }
%"class.llvm::SmallVectorTemplateBase.25" = type { %"class.llvm::SmallVectorTemplateCommon.26" }
%"class.llvm::SmallVectorTemplateCommon.26" = type { %"class.llvm::SmallVectorBase" }
%"class.llvm::DbgLabelInstrMap" = type { %"class.llvm::MapVector.28" }
%"class.llvm::MapVector.28" = type { %"class.llvm::DenseMap.20", %"class.llvm::SmallVector.29" }
%"class.llvm::SmallVector.29" = type { %"class.llvm::SmallVectorImpl.30" }
%"class.llvm::SmallVectorImpl.30" = type { %"class.llvm::SmallVectorTemplateBase.31" }
%"class.llvm::SmallVectorTemplateBase.31" = type { %"class.llvm::SmallVectorTemplateCommon.32" }
%"class.llvm::SmallVectorTemplateCommon.32" = type { %"class.llvm::SmallVectorBase" }
%"class.llvm::DenseMap.34" = type <{ ptr, i32, i32, i32, [4 x i8] }>
%"class.llvm::InstructionOrdering" = type { %"class.llvm::DenseMap.37" }
%"class.llvm::DenseMap.37" = type <{ ptr, i32, i32, i32, [4 x i8] }>
%"class.llvm::BumpPtrAllocatorImpl" = type { ptr, ptr, %"class.llvm::SmallVector.41", %"class.llvm::SmallVector.46", i64, i64 }
%"class.llvm::SmallVector.41" = type { %"class.llvm::SmallVectorImpl.42", %"struct.llvm::SmallVectorStorage.45" }
%"class.llvm::SmallVectorImpl.42" = type { %"class.llvm::SmallVectorTemplateBase.43" }
%"class.llvm::SmallVectorTemplateBase.43" = type { %"class.llvm::SmallVectorTemplateCommon.44" }
%"class.llvm::SmallVectorTemplateCommon.44" = type { %"class.llvm::SmallVectorBase" }
%"struct.llvm::SmallVectorStorage.45" = type { [32 x i8] }
%"class.llvm::SmallVector.46" = type { %"class.llvm::SmallVectorImpl.47" }
%"class.llvm::SmallVectorImpl.47" = type { %"class.llvm::SmallVectorTemplateBase.48" }
%"class.llvm::SmallVectorTemplateBase.48" = type { %"class.llvm::SmallVectorTemplateCommon.49" }
%"class.llvm::SmallVectorTemplateCommon.49" = type { %"class.llvm::SmallVectorBase" }
%"class.llvm::codeview::GlobalTypeTableBuilder" = type { %"class.llvm::codeview::TypeCollection", ptr, %"class.llvm::codeview::SimpleTypeSerializer", %"class.llvm::DenseMap.54", %"class.llvm::SmallVector.57", %"class.llvm::SmallVector.62" }
%"class.llvm::codeview::TypeCollection" = type { ptr }
%"class.llvm::codeview::SimpleTypeSerializer" = type { %"class.std::vector" }
%"class.std::vector" = type { %"struct.std::_Vector_base" }
%"struct.std::_Vector_base" = type { %"struct.std::_Vector_base<unsigned char, std::allocator<unsigned char>>::_Vector_impl" }
%"struct.std::_Vector_base<unsigned char, std::allocator<unsigned char>>::_Vector_impl" = type { %"struct.std::_Vector_base<unsigned char, std::allocator<unsigned char>>::_Vector_impl_data" }
%"struct.std::_Vector_base<unsigned char, std::allocator<unsigned char>>::_Vector_impl_data" = type { ptr, ptr, ptr }
%"class.llvm::DenseMap.54" = type <{ ptr, i32, i32, i32, [4 x i8] }>
%"class.llvm::SmallVector.57" = type { %"class.llvm::SmallVectorImpl.58", %"struct.llvm::SmallVectorStorage.61" }
%"class.llvm::SmallVectorImpl.58" = type { %"class.llvm::SmallVectorTemplateBase.59" }
%"class.llvm::SmallVectorTemplateBase.59" = type { %"class.llvm::SmallVectorTemplateCommon.60" }
%"class.llvm::SmallVectorTemplateCommon.60" = type { %"class.llvm::SmallVectorBase" }
%"struct.llvm::SmallVectorStorage.61" = type { [32 x i8] }
%"class.llvm::SmallVector.62" = type { %"class.llvm::SmallVectorImpl.63", %"struct.llvm::SmallVectorStorage.66" }
%"class.llvm::SmallVectorImpl.63" = type { %"class.llvm::SmallVectorTemplateBase.64" }
%"class.llvm::SmallVectorTemplateBase.64" = type { %"class.llvm::SmallVectorTemplateCommon.65" }
%"class.llvm::SmallVectorTemplateCommon.65" = type { %"class.llvm::SmallVectorBase" }
%"struct.llvm::SmallVectorStorage.66" = type { [16 x i8] }
%"class.llvm::DenseMap.67" = type <{ ptr, i32, i32, i32, [4 x i8] }>
%"class.llvm::DenseMap.70" = type <{ ptr, i32, i32, i32, [4 x i8] }>
%"class.llvm::DenseMap.73" = type <{ ptr, i32, i32, i32, [4 x i8] }>
%"class.llvm::SmallVector.76" = type { %"class.llvm::SmallVectorImpl.77", %"struct.llvm::SmallVectorStorage.80" }
%"class.llvm::SmallVectorImpl.77" = type { %"class.llvm::SmallVectorTemplateBase.78" }
%"class.llvm::SmallVectorTemplateBase.78" = type { %"class.llvm::SmallVectorTemplateCommon.79" }
%"class.llvm::SmallVectorTemplateCommon.79" = type { %"class.llvm::SmallVectorBase" }
%"struct.llvm::SmallVectorStorage.80" = type { [16 x i8] }
%"class.llvm::SmallVector.81" = type { %"class.llvm::SmallVectorImpl.82", %"struct.llvm::SmallVectorStorage.85" }
%"class.llvm::SmallVectorImpl.82" = type { %"class.llvm::SmallVectorTemplateBase.83" }
%"class.llvm::SmallVectorTemplateBase.83" = type { %"class.llvm::SmallVectorTemplateCommon.84" }
%"class.llvm::SmallVectorTemplateCommon.84" = type { %"class.llvm::SmallVectorBase" }
%"struct.llvm::SmallVectorStorage.85" = type { [32 x i8] }
%"class.llvm::DenseSet" = type { %"class.llvm::detail::DenseSetImpl" }
%"class.llvm::detail::DenseSetImpl" = type { %"class.llvm::DenseMap.86" }
%"class.llvm::DenseMap.86" = type <{ ptr, i32, i32, i32, [4 x i8] }>
%"class.llvm::MapVector.89" = type { %"class.llvm::DenseMap.90", %"class.llvm::SmallVector.93" }
%"class.llvm::DenseMap.90" = type <{ ptr, i32, i32, i32, [4 x i8] }>
%"class.llvm::SmallVector.93" = type { %"class.llvm::SmallVectorImpl.94" }
%"class.llvm::SmallVectorImpl.94" = type { %"class.llvm::SmallVectorTemplateBase.95" }
%"class.llvm::SmallVectorTemplateBase.95" = type { %"class.llvm::SmallVectorTemplateCommon.96" }
%"class.llvm::SmallVectorTemplateCommon.96" = type { %"class.llvm::SmallVectorBase" }
%"class.llvm::DenseMap.98" = type <{ ptr, i32, i32, i32, [4 x i8] }>
%"class.llvm::SmallSetVector" = type { %"class.llvm::SetVector" }
%"class.llvm::SetVector" = type { %"class.llvm::DenseSet.101", %"class.llvm::SmallVector.106" }
%"class.llvm::DenseSet.101" = type { %"class.llvm::detail::DenseSetImpl.102" }
%"class.llvm::detail::DenseSetImpl.102" = type { %"class.llvm::DenseMap.103" }
%"class.llvm::DenseMap.103" = type <{ ptr, i32, i32, i32, [4 x i8] }>
%"class.llvm::SmallVector.106" = type { %"class.llvm::SmallVectorImpl.107", %"struct.llvm::SmallVectorStorage.110" }
%"class.llvm::SmallVectorImpl.107" = type { %"class.llvm::SmallVectorTemplateBase.108" }
%"class.llvm::SmallVectorTemplateBase.108" = type { %"class.llvm::SmallVectorTemplateCommon.109" }
%"class.llvm::SmallVectorTemplateCommon.109" = type { %"class.llvm::SmallVectorBase" }
%"struct.llvm::SmallVectorStorage.110" = type { [32 x i8] }
%"class.llvm::DenseMap.111" = type <{ ptr, i32, i32, i32, [4 x i8] }>
%"class.llvm::DenseMap.114" = type <{ ptr, i32, i32, i32, [4 x i8] }>
%"class.llvm::SmallVector.117" = type { %"class.llvm::SmallVectorImpl.118", %"struct.llvm::SmallVectorStorage.121" }
%"class.llvm::SmallVectorImpl.118" = type { %"class.llvm::SmallVectorTemplateBase.119" }
%"class.llvm::SmallVectorTemplateBase.119" = type { %"class.llvm::SmallVectorTemplateCommon.120" }
%"class.llvm::SmallVectorTemplateCommon.120" = type { %"class.llvm::SmallVectorBase" }
%"struct.llvm::SmallVectorStorage.121" = type { [32 x i8] }
%"class.llvm::codeview::TypeIndex" = type { %"struct.llvm::support::detail::packed_endian_specific_integral" }
%"struct.llvm::support::detail::packed_endian_specific_integral" = type { %struct.anon }
%struct.anon = type { [4 x i8] }
%"class.std::vector.122" = type { %"struct.std::_Vector_base.123" }
%"struct.std::_Vector_base.123" = type { %"struct.std::_Vector_base<std::pair<std::__cxx11::basic_string<char>, const llvm::DIType *>, std::allocator<std::pair<std::__cxx11::basic_string<char>, const llvm::DIType *>>>::_Vector_impl" }
%"struct.std::_Vector_base<std::pair<std::__cxx11::basic_string<char>, const llvm::DIType *>, std::allocator<std::pair<std::__cxx11::basic_string<char>, const llvm::DIType *>>>::_Vector_impl" = type { %"struct.std::_Vector_base<std::pair<std::__cxx11::basic_string<char>, const llvm::DIType *>, std::allocator<std::pair<std::__cxx11::basic_string<char>, const llvm::DIType *>>>::_Vector_impl_data" }
%"struct.std::_Vector_base<std::pair<std::__cxx11::basic_string<char>, const llvm::DIType *>, std::allocator<std::pair<std::__cxx11::basic_string<char>, const llvm::DIType *>>>::_Vector_impl_data" = type { ptr, ptr, ptr }
%"class.std::map" = type { %"class.std::_Rb_tree" }
%"class.std::_Rb_tree" = type { %"struct.std::_Rb_tree<const llvm::DIFile *, std::pair<const llvm::DIFile *const, std::__cxx11::basic_string<char>>, std::_Select1st<std::pair<const llvm::DIFile *const, std::__cxx11::basic_string<char>>>, std::less<const llvm::DIFile *>>::_Rb_tree_impl" }
%"struct.std::_Rb_tree<const llvm::DIFile *, std::pair<const llvm::DIFile *const, std::__cxx11::basic_string<char>>, std::_Select1st<std::pair<const llvm::DIFile *const, std::__cxx11::basic_string<char>>>, std::less<const llvm::DIFile *>>::_Rb_tree_impl" = type { [8 x i8], %"struct.std::_Rb_tree_header" }
%"struct.std::_Rb_tree_header" = type { %"struct.std::_Rb_tree_node_base", i64 }
%"struct.std::_Rb_tree_node_base" = type { i32, ptr, ptr, ptr }
%"class.llvm::SMLoc" = type { ptr }
%"struct.llvm::Align" = type { i8 }

; Function Attrs: mustprogress nounwind uwtable
define linkonce_odr hidden noundef i32 @_ZN4llvm6detail19LeadingZerosCounterImLm8EE5countEm(i64 noundef %0) #0 comdat align 2 {
  %2 = alloca i32, align 4
  %3 = alloca i64, align 8
  store i64 %0, ptr %3, align 8
  %4 = load i64, ptr %3, align 8
  %5 = icmp eq i64 %4, 0
  br i1 %5, label %6, label %7

6:                                                ; preds = %1
  store i32 64, ptr %2, align 4
  br label %11

7:                                                ; preds = %1
  %8 = load i64, ptr %3, align 8
  %9 = call i64 @llvm.ctlz.i64(i64 %8, i1 true)
  %10 = trunc i64 %9 to i32
  store i32 %10, ptr %2, align 4
  br label %11

11:                                               ; preds = %7, %6
  %12 = load i32, ptr %2, align 4
  ret i32 %12
}

; Function Attrs: mustprogress nounwind uwtable
define linkonce_odr noundef i32 @_ZN4llvm11countl_zeroImEEiT_(i64 noundef %0) #0 comdat {
  %2 = alloca i64, align 8
  store i64 %0, ptr %2, align 8
  %3 = load i64, ptr %2, align 8
  %4 = call noundef i32 @_ZN4llvm6detail19LeadingZerosCounterImLm8EE5countEm(i64 noundef %3)
  ret i32 %4
}

; Function Attrs: mustprogress nounwind uwtable
define linkonce_odr hidden noundef i32 @_ZN4llvm7Log2_64Em(i64 noundef %0) #0 comdat {
  %2 = alloca i64, align 8
  store i64 %0, ptr %2, align 8
  %3 = load i64, ptr %2, align 8
  %4 = call noundef i32 @_ZN4llvm11countl_zeroImEEiT_(i64 noundef %3)
  %5 = sub nsw i32 63, %4
  ret i32 %5
}

; Function Attrs: mustprogress nounwind uwtable
define linkonce_odr hidden void @_ZN4llvm5SMLocC2Ev(ptr noundef nonnull align 8 dereferenceable(8) %0) unnamed_addr #0 comdat align 2 {
  %2 = alloca ptr, align 8
  store ptr %0, ptr %2, align 8
  %3 = load ptr, ptr %2, align 8
  %4 = getelementptr inbounds nuw %"class.llvm::SMLoc", ptr %3, i32 0, i32 0
  store ptr null, ptr %4, align 8
  ret void
}

; Function Attrs: mustprogress nounwind uwtable
define linkonce_odr hidden void @_ZN4llvm5AlignC2Em(ptr noundef nonnull align 1 dereferenceable(1) %0, i64 noundef %1) unnamed_addr #0 comdat align 2 {
  %3 = alloca ptr, align 8
  %4 = alloca i64, align 8
  store ptr %0, ptr %3, align 8
  store i64 %1, ptr %4, align 8
  %5 = load ptr, ptr %3, align 8
  %6 = getelementptr inbounds nuw %"struct.llvm::Align", ptr %5, i32 0, i32 0
  store i8 0, ptr %6, align 1
  %7 = load i64, ptr %4, align 8
  %8 = call noundef i32 @_ZN4llvm7Log2_64Em(i64 noundef %7)
  %9 = trunc i32 %8 to i8
  %10 = getelementptr inbounds nuw %"struct.llvm::Align", ptr %5, i32 0, i32 0
  store i8 %9, ptr %10, align 1
  ret void
}

; Function Attrs: mustprogress nounwind uwtable
define hidden void @_ZN4llvm13CodeViewDebug15endSymbolRecordEPNS_8MCSymbolE(ptr noundef nonnull align 8 dereferenceable(1312) %0, ptr noundef %1) #0 align 2 {
  %3 = alloca ptr, align 8
  %4 = alloca ptr, align 8
  %5 = alloca %"struct.llvm::Align", align 1
  %6 = alloca %"class.llvm::SMLoc", align 8
  store ptr %0, ptr %3, align 8
  store ptr %1, ptr %4, align 8
  %7 = load ptr, ptr %3, align 8
  %8 = getelementptr inbounds nuw %"class.llvm::CodeViewDebug", ptr %7, i32 0, i32 1
  %9 = load ptr, ptr %8, align 8
  call void @_ZN4llvm5AlignC2Em(ptr noundef nonnull align 1 dereferenceable(1) %5, i64 noundef 4)
  %10 = getelementptr inbounds nuw %"struct.llvm::Align", ptr %5, i32 0, i32 0
  %11 = load i8, ptr %10, align 1
  %12 = load ptr, ptr %9, align 8
  %13 = getelementptr inbounds ptr, ptr %12, i64 80
  %14 = load ptr, ptr %13, align 8
  call void %14(ptr noundef nonnull align 8 dereferenceable(288) %9, i8 %11, i64 noundef 0, i32 noundef 1, i32 noundef 0)
  %15 = getelementptr inbounds nuw %"class.llvm::CodeViewDebug", ptr %7, i32 0, i32 1
  %16 = load ptr, ptr %15, align 8
  %17 = load ptr, ptr %4, align 8
  call void @llvm.memset.p0.i64(ptr align 8 %6, i8 0, i64 8, i1 false)
  call void @_ZN4llvm5SMLocC2Ev(ptr noundef nonnull align 8 dereferenceable(8) %6) #16
  %18 = getelementptr inbounds nuw %"class.llvm::SMLoc", ptr %6, i32 0, i32 0
  %19 = load ptr, ptr %18, align 8
  %20 = load ptr, ptr %16, align 8
  %21 = getelementptr inbounds ptr, ptr %20, i64 25
  %22 = load ptr, ptr %21, align 8
  call void %22(ptr noundef nonnull align 8 dereferenceable(288) %16, ptr noundef %17, ptr %19)
  ret void
}